target datalayout = "e-m:e-p270:32:32-p271:32:32-p272:64:64-i64:64-i128:128-f80:128-n8:16:32:64-S128"
target triple = "x86_64-pc-linux-gnu"

%struct.DdNode = type { i32, i32, ptr, %union.anon, i64 }
%union.anon = type { %struct.DdChildren }
%struct.DdChildren = type { ptr, ptr }

; Function Attrs: nounwind uwtable
define internal void @ddSupportStep(ptr noundef %0, ptr noundef %1) #0 {
  %3 = alloca ptr, align 8
  %4 = alloca ptr, align 8
  store ptr %0, ptr %3, align 8
  store ptr %1, ptr %4, align 8
  %5 = load ptr, ptr %3, align 8
  %6 = getelementptr inbounds %struct.DdNode, ptr %5, i32 0, i32 0
  %7 = load i32, ptr %6, align 8
  %8 = icmp eq i32 %7, 2147483647
  br i1 %8, label %17, label %9

9:                                                ; preds = %2
  %10 = load ptr, ptr %3, align 8
  %11 = getelementptr inbounds %struct.DdNode, ptr %10, i32 0, i32 2
  %12 = load ptr, ptr %11, align 8
  %13 = ptrtoint ptr %12 to i64
  %14 = and i64 %13, 1
  %15 = trunc i64 %14 to i32
  %16 = icmp ne i32 %15, 0
  br i1 %16, label %17, label %18

17:                                               ; preds = %9, %2
  br label %46

18:                                               ; preds = %9
  %19 = load ptr, ptr %4, align 8
  %20 = load ptr, ptr %3, align 8
  %21 = getelementptr inbounds %struct.DdNode, ptr %20, i32 0, i32 0
  %22 = load i32, ptr %21, align 8
  %23 = zext i32 %22 to i64
  %24 = getelementptr inbounds i32, ptr %19, i64 %23
  store i32 1, ptr %24, align 4
  %25 = load ptr, ptr %3, align 8
  %26 = getelementptr inbounds %struct.DdNode, ptr %25, i32 0, i32 3
  %27 = getelementptr inbounds %struct.DdChildren, ptr %26, i32 0, i32 0
  %28 = load ptr, ptr %27, align 8
  %29 = load ptr, ptr %4, align 8
  call void @ddSupportStep(ptr noundef %28, ptr noundef %29)
  %30 = load ptr, ptr %3, align 8
  %31 = getelementptr inbounds %struct.DdNode, ptr %30, i32 0, i32 3
  %32 = getelementptr inbounds %struct.DdChildren, ptr %31, i32 0, i32 1
  %33 = load ptr, ptr %32, align 8
  %34 = ptrtoint ptr %33 to i64
  %35 = and i64 %34, -2
  %36 = inttoptr i64 %35 to ptr
  %37 = load ptr, ptr %4, align 8
  call void @ddSupportStep(ptr noundef %36, ptr noundef %37)
  %38 = load ptr, ptr %3, align 8
  %39 = getelementptr inbounds %struct.DdNode, ptr %38, i32 0, i32 2
  %40 = load ptr, ptr %39, align 8
  %41 = ptrtoint ptr %40 to i64
  %42 = xor i64 %41, 1
  %43 = inttoptr i64 %42 to ptr
  %44 = load ptr, ptr %3, align 8
  %45 = getelementptr inbounds %struct.DdNode, ptr %44, i32 0, i32 2
  store ptr %43, ptr %45, align 8
  br label %46

46:                                               ; preds = %18, %17
  ret void
}