; Function Attrs: nofree nosync nounwind memory(readwrite, inaccessiblemem: none) uwtable
define internal fastcc void @ddSupportStep(ptr noundef captures(none) %0, ptr noundef nonnull %1) unnamed_addr #6 {
  %3 = load i32, ptr %0, align 8
  %4 = icmp eq i32 %3, 2147483647
  br i1 %4, label %common.ret10, label %5

5:                                                ; preds = %2
  %6 = getelementptr inbounds nuw i8, ptr %0, i64 8
  %7 = load ptr, ptr %6, align 8
  %8 = ptrtoint ptr %7 to i64
  %9 = and i64 %8, 1
  %.not = icmp eq i64 %9, 0
  br i1 %.not, label %10, label %common.ret10

common.ret10:                                     ; preds = %2, %5, %10
  ret void

10:                                               ; preds = %5
  %11 = zext i32 %3 to i64
  %12 = getelementptr inbounds nuw i32, ptr %1, i64 %11
  store i32 1, ptr %12, align 4
  %13 = getelementptr inbounds nuw i8, ptr %0, i64 16
  %14 = load ptr, ptr %13, align 8
  tail call fastcc void @ddSupportStep(ptr noundef %14, ptr noundef %1)
  %15 = getelementptr inbounds nuw i8, ptr %0, i64 24
  %16 = load ptr, ptr %15, align 8
  %17 = ptrtoint ptr %16 to i64
  %18 = and i64 %17, -2
  %19 = inttoptr i64 %18 to ptr
  tail call fastcc void @ddSupportStep(ptr noundef %19, ptr noundef %1)
  %20 = load ptr, ptr %6, align 8
  %21 = ptrtoint ptr %20 to i64
  %22 = xor i64 %21, 1
  %23 = inttoptr i64 %22 to ptr
  store ptr %23, ptr %6, align 8
  br label %common.ret10
}